target datalayout = "e-m:e-p270:32:32-p271:32:32-p272:64:64-i64:64-i128:128-f80:128-n8:16:32:64-S128"
target triple = "x86_64-unknown-linux-gnu"

%"class.sat::literal" = type { i32 }
%"class.sat::lookahead" = type { ptr, i32, %class.reslimit, %"struct.sat::lookahead::config", double, double, double, %class.svector.1, %class.svector.1, %class.svector.3, %class.vector.5, %class.svector.3, %class.svector.3, %class.vector.6, %class.svector.3, %class.small_object_allocator, %class.vector.7, %class.ptr_vector.8, %class.svector.3, i32, %class.svector.3, i32, %class.svector.3, i8, %class.svector.3, %class.vector.10, ptr, %class.svector.11, i32, i32, %class.svector.3, i32, i32, %class.vector.13, %class.svector.14, double, %class.svector.1, i32, i64, %class.svector.16, i32, %class.indexed_uint_set, i32, i32, %"struct.sat::lookahead::stats", %class.svector.18, %"struct.sat::lookahead::cube_state", i32, %class.svector.22, %class.tracked_uint_set, %"class.sat::literal", i32, i32, %"class.sat::literal", %class.vector.26, %"class.sat::literal", %class.svector.27 }
%class.reslimit = type { %"struct.std::atomic", i8, i64, i64, %class.svector, %class.ptr_vector }
%"struct.std::atomic" = type { %"struct.std::__atomic_base" }
%"struct.std::__atomic_base" = type { i32 }
%class.svector = type { %class.vector }
%class.vector = type { ptr }
%class.ptr_vector = type { %class.vector.0 }
%class.vector.0 = type { ptr }
%"struct.sat::lookahead::config" = type { double, double, double, i32, i32, i8, i32, double, i32, i32, i32, i32, i32, double, double, double, double, double }
%class.vector.5 = type { ptr }
%class.vector.6 = type { ptr }
%class.small_object_allocator = type { [32 x ptr], [32 x ptr], i64 }
%class.vector.7 = type { ptr }
%class.ptr_vector.8 = type { %class.vector.9 }
%class.vector.9 = type { ptr }
%class.vector.10 = type { ptr }
%class.svector.11 = type { %class.vector.12 }
%class.vector.12 = type { ptr }
%class.svector.3 = type { %class.vector.4 }
%class.vector.4 = type { ptr }
%class.vector.13 = type { ptr }
%class.svector.14 = type { %class.vector.15 }
%class.vector.15 = type { ptr }
%class.svector.1 = type { %class.vector.2 }
%class.vector.2 = type { ptr }
%class.svector.16 = type { %class.vector.17 }
%class.vector.17 = type { ptr }
%class.indexed_uint_set = type { i32, %class.svector.3, %class.svector.3 }
%"struct.sat::lookahead::stats" = type { i32, i32, i32, i32, i32, i32, i32, i32 }
%class.svector.18 = type { %class.vector.19 }
%class.vector.19 = type { ptr }
%"struct.sat::lookahead::cube_state" = type <{ i8, [7 x i8], %class.svector.20, %class.svector.1, double, double, i32, i32, i32, [4 x i8] }>
%class.svector.20 = type { %class.vector.21 }
%class.vector.21 = type { ptr }
%class.svector.22 = type { %class.vector.23 }
%class.vector.23 = type { ptr }
%class.tracked_uint_set = type { %class.svector.24, %class.svector.3 }
%class.svector.24 = type { %class.vector.25 }
%class.vector.25 = type { ptr }
%class.vector.26 = type { ptr }
%class.svector.27 = type { %class.vector.28 }
%class.vector.28 = type { ptr }
%"struct.sat::lookahead::dfs_info" = type { i32, i32, %"class.sat::literal", %"struct.sat::lookahead::arcs", i32, %"class.sat::literal", %"class.sat::literal", %"class.sat::literal" }
%"struct.sat::lookahead::arcs" = type { %class.svector.1 }

@_ZN3satL12null_literalE = internal global %"class.sat::literal" zeroinitializer, align 4

; Function Attrs: mustprogress nounwind uwtable
define linkonce_odr hidden noundef nonnull align 4 dereferenceable(4) ptr @_ZN6vectorIjLb0EjEixEj(ptr noundef nonnull align 8 dereferenceable(8) %this, i32 noundef %idx) #4 comdat align 2 {
entry:
  %this.addr = alloca ptr, align 8
  %idx.addr = alloca i32, align 4
  store ptr %this, ptr %this.addr, align 8
  store i32 %idx, ptr %idx.addr, align 4
  %this1 = load ptr, ptr %this.addr, align 8
  %m_data = getelementptr inbounds %class.vector.4, ptr %this1, i32 0, i32 0
  %0 = load ptr, ptr %m_data, align 8
  %1 = load i32, ptr %idx.addr, align 4
  %idxprom = zext i32 %1 to i64
  %arrayidx = getelementptr inbounds i32, ptr %0, i64 %idxprom
  ret ptr %arrayidx
}

; Function Attrs: mustprogress nounwind uwtable
define linkonce_odr hidden void @_ZN6vectorIN3sat7literalELb0EjE5resetEv(ptr noundef nonnull align 8 dereferenceable(8) %this) #4 comdat align 2 {
entry:
  %this.addr = alloca ptr, align 8
  store ptr %this, ptr %this.addr, align 8
  %this1 = load ptr, ptr %this.addr, align 8
  %m_data = getelementptr inbounds %class.vector.2, ptr %this1, i32 0, i32 0
  %0 = load ptr, ptr %m_data, align 8
  %tobool = icmp ne ptr %0, null
  br i1 %tobool, label %if.then, label %if.end

if.then:                                          ; preds = %entry
  %m_data2 = getelementptr inbounds %class.vector.2, ptr %this1, i32 0, i32 0
  %1 = load ptr, ptr %m_data2, align 8
  %arrayidx = getelementptr inbounds i32, ptr %1, i64 -1
  store i32 0, ptr %arrayidx, align 4
  br label %if.end

if.end:                                           ; preds = %if.then, %entry
  ret void
}

; Function Attrs: mustprogress uwtable
define linkonce_odr hidden void @_ZN3sat9lookahead10set_bstampENS_7literalE(ptr noundef nonnull align 8 dereferenceable(1160) %this, i32 %l.coerce) #5 comdat align 2 {
entry:
  %l = alloca %"class.sat::literal", align 4
  %this.addr = alloca ptr, align 8
  %coerce.dive = getelementptr inbounds %"class.sat::literal", ptr %l, i32 0, i32 0
  store i32 %l.coerce, ptr %coerce.dive, align 4
  store ptr %this, ptr %this.addr, align 8
  %this1 = load ptr, ptr %this.addr, align 8
  %m_bstamp_id = getelementptr inbounds %"class.sat::lookahead", ptr %this1, i32 0, i32 28
  %0 = load i32, ptr %m_bstamp_id, align 8
  %m_bstamp = getelementptr inbounds %"class.sat::lookahead", ptr %this1, i32 0, i32 24
  %call = call noundef i32 @_ZNK3sat7literal5indexEv(ptr noundef nonnull align 4 dereferenceable(4) %l)
  %call2 = call noundef nonnull align 4 dereferenceable(4) ptr @_ZN6vectorIjLb0EjEixEj(ptr noundef nonnull align 8 dereferenceable(8) %m_bstamp, i32 noundef %call)
  store i32 %0, ptr %call2, align 4
  ret void
}

; Function Attrs: mustprogress uwtable
define linkonce_odr hidden void @_ZN3sat9lookahead8dfs_info5resetEv(ptr noundef nonnull align 8 dereferenceable(40) %this) #5 comdat align 2 {
entry:
  %this.addr = alloca ptr, align 8
  store ptr %this, ptr %this.addr, align 8
  %this1 = load ptr, ptr %this.addr, align 8
  %m_rank = getelementptr inbounds %"struct.sat::lookahead::dfs_info", ptr %this1, i32 0, i32 0
  store i32 0, ptr %m_rank, align 8
  %m_height = getelementptr inbounds %"struct.sat::lookahead::dfs_info", ptr %this1, i32 0, i32 1
  store i32 0, ptr %m_height, align 4
  %m_parent = getelementptr inbounds %"struct.sat::lookahead::dfs_info", ptr %this1, i32 0, i32 2
  call void @llvm.memcpy.p0.p0.i64(ptr align 8 %m_parent, ptr align 4 @_ZN3satL12null_literalE, i64 4, i1 false)
  %m_next = getelementptr inbounds %"struct.sat::lookahead::dfs_info", ptr %this1, i32 0, i32 3
  call void @_ZN6vectorIN3sat7literalELb0EjE5resetEv(ptr noundef nonnull align 8 dereferenceable(8) %m_next)
  %m_link = getelementptr inbounds %"struct.sat::lookahead::dfs_info", ptr %this1, i32 0, i32 5
  call void @llvm.memcpy.p0.p0.i64(ptr align 4 %m_link, ptr align 4 @_ZN3satL12null_literalE, i64 4, i1 false)
  %m_min = getelementptr inbounds %"struct.sat::lookahead::dfs_info", ptr %this1, i32 0, i32 6
  call void @llvm.memcpy.p0.p0.i64(ptr align 8 %m_min, ptr align 4 @_ZN3satL12null_literalE, i64 4, i1 false)
  %m_vcomp = getelementptr inbounds %"struct.sat::lookahead::dfs_info", ptr %this1, i32 0, i32 7
  call void @llvm.memcpy.p0.p0.i64(ptr align 4 %m_vcomp, ptr align 4 @_ZN3satL12null_literalE, i64 4, i1 false)
  %m_nextp = getelementptr inbounds %"struct.sat::lookahead::dfs_info", ptr %this1, i32 0, i32 4
  store i32 0, ptr %m_nextp, align 8
  ret void
}

; Function Attrs: mustprogress nounwind uwtable
define linkonce_odr hidden noundef nonnull align 8 dereferenceable(40) ptr @_ZN6vectorIN3sat9lookahead8dfs_infoELb1EjEixEj(ptr noundef nonnull align 8 dereferenceable(8) %this, i32 noundef %idx) #4 comdat align 2 {
entry:
  %this.addr = alloca ptr, align 8
  %idx.addr = alloca i32, align 4
  store ptr %this, ptr %this.addr, align 8
  store i32 %idx, ptr %idx.addr, align 4
  %this1 = load ptr, ptr %this.addr, align 8
  %m_data = getelementptr inbounds %class.vector.26, ptr %this1, i32 0, i32 0
  %0 = load ptr, ptr %m_data, align 8
  %1 = load i32, ptr %idx.addr, align 4
  %idxprom = zext i32 %1 to i64
  %arrayidx = getelementptr inbounds %"struct.sat::lookahead::dfs_info", ptr %0, i64 %idxprom
  ret ptr %arrayidx
}

; Function Attrs: mustprogress nounwind uwtable
define linkonce_odr hidden noundef i32 @_ZNK3sat7literal5indexEv(ptr noundef nonnull align 4 dereferenceable(4) %this) #4 comdat align 2 {
entry:
  %this.addr = alloca ptr, align 8
  store ptr %this, ptr %this.addr, align 8
  %this1 = load ptr, ptr %this.addr, align 8
  %m_val = getelementptr inbounds %"class.sat::literal", ptr %this1, i32 0, i32 0
  %0 = load i32, ptr %m_val, align 4
  ret i32 %0
}

; Function Attrs: mustprogress uwtable
define hidden void @_ZN3sat9lookahead13init_dfs_infoENS_7literalE(ptr noundef nonnull align 8 dereferenceable(1160) %this, i32 %l.coerce) #5 align 2 {
entry:
  %l = alloca %"class.sat::literal", align 4
  %this.addr = alloca ptr, align 8
  %idx = alloca i32, align 4
  %agg.tmp = alloca %"class.sat::literal", align 4
  %coerce.dive = getelementptr inbounds %"class.sat::literal", ptr %l, i32 0, i32 0
  store i32 %l.coerce, ptr %coerce.dive, align 4
  store ptr %this, ptr %this.addr, align 8
  %this1 = load ptr, ptr %this.addr, align 8
  %call = call noundef i32 @_ZNK3sat7literal5indexEv(ptr noundef nonnull align 4 dereferenceable(4) %l)
  store i32 %call, ptr %idx, align 4
  %m_dfs = getelementptr inbounds %"class.sat::lookahead", ptr %this1, i32 0, i32 54
  %0 = load i32, ptr %idx, align 4
  %call2 = call noundef nonnull align 8 dereferenceable(40) ptr @_ZN6vectorIN3sat9lookahead8dfs_infoELb1EjEixEj(ptr noundef nonnull align 8 dereferenceable(8) %m_dfs, i32 noundef %0)
  call void @_ZN3sat9lookahead8dfs_info5resetEv(ptr noundef nonnull align 8 dereferenceable(40) %call2)
  call void @llvm.memcpy.p0.p0.i64(ptr align 4 %agg.tmp, ptr align 4 %l, i64 4, i1 false)
  %coerce.dive3 = getelementptr inbounds %"class.sat::literal", ptr %agg.tmp, i32 0, i32 0
  %1 = load i32, ptr %coerce.dive3, align 4
  call void @_ZN3sat9lookahead10set_bstampENS_7literalE(ptr noundef nonnull align 8 dereferenceable(1160) %this1, i32 %1)
  ret void
}