; Function Attrs: mustprogress nofree norecurse nosync nounwind willreturn memory(readwrite, inaccessiblemem: none) uwtable
define hidden void @_ZN3sat9lookahead13init_dfs_infoENS_7literalE(ptr nocapture noundef nonnull readonly align 8 dereferenceable(1160) %this, i32 %l.coerce) local_unnamed_addr #8 align 2 {
entry:
  %m_dfs = getelementptr inbounds i8, ptr %this, i64 1136
  %0 = load ptr, ptr %m_dfs, align 8
  %idxprom.i = zext i32 %l.coerce to i64
  %arrayidx.i = getelementptr inbounds %"struct.sat::lookahead::dfs_info", ptr %0, i64 %idxprom.i
  store i32 0, ptr %arrayidx.i, align 8
  %m_height.i = getelementptr inbounds i8, ptr %arrayidx.i, i64 4
  store i32 0, ptr %m_height.i, align 4
  %m_parent.i = getelementptr inbounds i8, ptr %arrayidx.i, i64 8
  %.b = load i1, ptr @_ZN3satL12null_literalE.0, align 4
  %1 = select i1 %.b, i32 -2, i32 0
  store i32 %1, ptr %m_parent.i, align 8
  %m_next.i = getelementptr inbounds i8, ptr %arrayidx.i, i64 16
  %2 = load ptr, ptr %m_next.i, align 8
  %tobool.not.i.i = icmp eq ptr %2, null
  br i1 %tobool.not.i.i, label %_ZN3sat9lookahead8dfs_info5resetEv.exit, label %if.then.i.i

if.then.i.i:                                      ; preds = %entry
  %arrayidx.i.i = getelementptr inbounds i8, ptr %2, i64 -4
  store i32 0, ptr %arrayidx.i.i, align 4
  %.pre.i.b = load i1, ptr @_ZN3satL12null_literalE.0, align 4
  %.pre.i = select i1 %.pre.i.b, i32 -2, i32 0
  br label %_ZN3sat9lookahead8dfs_info5resetEv.exit

_ZN3sat9lookahead8dfs_info5resetEv.exit:          ; preds = %entry, %if.then.i.i
  %3 = phi i32 [ %1, %entry ], [ %.pre.i, %if.then.i.i ]
  %m_link.i = getelementptr inbounds i8, ptr %arrayidx.i, i64 28
  store i32 %3, ptr %m_link.i, align 4
  %m_min.i = getelementptr inbounds i8, ptr %arrayidx.i, i64 32
  store i32 %3, ptr %m_min.i, align 8
  %m_vcomp.i = getelementptr inbounds i8, ptr %arrayidx.i, i64 36
  store i32 %3, ptr %m_vcomp.i, align 4
  %m_nextp.i = getelementptr inbounds i8, ptr %arrayidx.i, i64 24
  store i32 0, ptr %m_nextp.i, align 8
  %m_bstamp_id.i = getelementptr inbounds i8, ptr %this, i64 872
  %4 = load i32, ptr %m_bstamp_id.i, align 8
  %m_bstamp.i = getelementptr inbounds i8, ptr %this, i64 840
  %5 = load ptr, ptr %m_bstamp.i, align 8
  %arrayidx.i.i1 = getelementptr inbounds i32, ptr %5, i64 %idxprom.i
  store i32 %4, ptr %arrayidx.i.i1, align 4
  ret void
}